; Function Attrs: nofree norecurse nosync nounwind memory(argmem: readwrite) uwtable
define internal void @PredictorAdd6_SSE2(ptr noundef readonly captures(none) %0, ptr noundef readonly captures(none) %1, i32 noundef %2, ptr noalias noundef captures(none) %3) #3 {
  %invariant.gep = getelementptr i8, ptr %1, i64 -4
  %5 = icmp sgt i32 %2, 0
  br i1 %5, label %.lr.ph.preheader, label %._crit_edge

.lr.ph.preheader:                                 ; preds = %4
  %wide.trip.count = zext nneg i32 %2 to i64
  %scevgep = getelementptr i8, ptr %3, i64 -4
  %load_initial = load i32, ptr %scevgep, align 4
  br label %.lr.ph

.lr.ph:                                           ; preds = %.lr.ph.preheader, %.lr.ph
  %store_forwarded = phi i32 [ %load_initial, %.lr.ph.preheader ], [ %29, %.lr.ph ]
  %indvars.iv = phi i64 [ 0, %.lr.ph.preheader ], [ %indvars.iv.next, %.lr.ph ]
  %6 = getelementptr i32, ptr %3, i64 %indvars.iv
  %gep = getelementptr i32, ptr %invariant.gep, i64 %indvars.iv
  %7 = load i32, ptr %gep, align 4, !tbaa !7
  %8 = insertelement <4 x i32> <i32 poison, i32 0, i32 0, i32 0>, i32 %store_forwarded, i64 0
  %9 = insertelement <4 x i32> <i32 poison, i32 0, i32 0, i32 0>, i32 %7, i64 0
  %10 = bitcast <4 x i32> %8 to <16 x i8>
  %11 = bitcast <4 x i32> %9 to <16 x i8>
  %12 = tail call <16 x i8> @llvm.x86.sse2.pavg.b(<16 x i8> %10, <16 x i8> %11)
  %13 = xor <4 x i32> %9, %8
  %14 = bitcast <4 x i32> %13 to <16 x i8>
  %15 = and <16 x i8> %14, <i8 1, i8 1, i8 1, i8 1, i8 poison, i8 poison, i8 poison, i8 poison, i8 poison, i8 poison, i8 poison, i8 poison, i8 poison, i8 poison, i8 poison, i8 poison>
  %16 = sub <16 x i8> %12, %15
  %17 = bitcast <16 x i8> %16 to <4 x i32>
  %18 = extractelement <4 x i32> %17, i64 0
  %19 = getelementptr inbounds nuw i32, ptr %0, i64 %indvars.iv
  %20 = load i32, ptr %19, align 4, !tbaa !7
  %21 = and i32 %20, -16711936
  %22 = and i32 %18, -16711936
  %23 = add i32 %22, %21
  %24 = and i32 %20, 16711935
  %25 = and i32 %18, 16711935
  %26 = add nuw nsw i32 %25, %24
  %27 = and i32 %23, -16711936
  %28 = and i32 %26, 16711935
  %29 = or disjoint i32 %27, %28
  store i32 %29, ptr %6, align 4, !tbaa !7
  %indvars.iv.next = add nuw nsw i64 %indvars.iv, 1
  %exitcond.not = icmp eq i64 %indvars.iv.next, %wide.trip.count
  br i1 %exitcond.not, label %._crit_edge, label %.lr.ph, !llvm.loop !17

._crit_edge:                                      ; preds = %.lr.ph, %4
  ret void
}